; Function Attrs: nounwind uwtable
define i64 @ZSTD_compressBlock_btultra2(ptr noundef initializes((224, 228)) %0, ptr noundef %1, ptr noundef %2, ptr noundef %3, i64 noundef %4) local_unnamed_addr #1 {
  %6 = alloca [3 x i32], align 4
  %7 = getelementptr inbounds nuw i8, ptr %0, i64 8
  %8 = load ptr, ptr %7, align 8, !tbaa !16
  %9 = ptrtoint ptr %3 to i64
  %10 = ptrtoint ptr %8 to i64
  %11 = sub i64 %9, %10
  %12 = trunc i64 %11 to i32
  %13 = getelementptr inbounds nuw i8, ptr %0, i64 196
  %14 = load i32, ptr %13, align 4, !tbaa !86
  %15 = icmp eq i32 %14, 0
  br i1 %15, label %16, label %39

16:                                               ; preds = %5
  %17 = getelementptr inbounds nuw i8, ptr %1, i64 8
  %18 = load ptr, ptr %17, align 8, !tbaa !74
  %19 = load ptr, ptr %1, align 8, !tbaa !77
  %20 = icmp eq ptr %18, %19
  br i1 %20, label %21, label %39

21:                                               ; preds = %16
  %22 = getelementptr inbounds nuw i8, ptr %0, i64 24
  %23 = load i32, ptr %22, align 8, !tbaa !20
  %24 = getelementptr inbounds nuw i8, ptr %0, i64 28
  %25 = load i32, ptr %24, align 4, !tbaa !87
  %26 = icmp eq i32 %23, %25
  br i1 %26, label %27, label %39

27:                                               ; preds = %21
  %28 = icmp eq i32 %23, %12
  %29 = icmp ugt i64 %4, 8
  %or.cond = and i1 %29, %28
  br i1 %or.cond, label %30, label %39

30:                                               ; preds = %27
  call void @llvm.lifetime.start.p0(i64 12, ptr nonnull %6) #12
  call void @llvm.memcpy.p0.p0.i64(ptr noundef nonnull align 4 dereferenceable(12) %6, ptr noundef nonnull readonly align 4 dereferenceable(12) %2, i64 12, i1 false)
  %31 = call fastcc i64 @ZSTD_compressBlock_opt2(ptr noundef nonnull %0, ptr noundef nonnull %1, ptr noundef nonnull %6, ptr noundef %3, i64 noundef range(i64 9, 0) %4, i32 noundef 0)
  call void @ZSTD_resetSeqStore(ptr noundef nonnull %1) #12
  %32 = load ptr, ptr %7, align 8, !tbaa !16
  %33 = sub i64 0, %4
  %34 = getelementptr inbounds i8, ptr %32, i64 %33
  store ptr %34, ptr %7, align 8, !tbaa !16
  %35 = trunc i64 %4 to i32
  %36 = load i32, ptr %22, align 8, !tbaa !20
  %37 = add i32 %36, %35
  store i32 %37, ptr %22, align 8, !tbaa !20
  store i32 %37, ptr %24, align 4, !tbaa !87
  %38 = getelementptr inbounds nuw i8, ptr %0, i64 44
  store i32 %37, ptr %38, align 4, !tbaa !17
  call void @llvm.lifetime.end.p0(i64 12, ptr nonnull %6) #12
  br label %39

39:                                               ; preds = %30, %27, %21, %16, %5
  %40 = call fastcc i64 @ZSTD_compressBlock_opt2(ptr noundef nonnull %0, ptr noundef %1, ptr noundef %2, ptr noundef %3, i64 noundef %4, i32 noundef 0)
  ret i64 %40
}